target datalayout = "e-m:e-p270:32:32-p271:32:32-p272:64:64-i64:64-i128:128-f80:128-n8:16:32:64-S128"
target triple = "x86_64-pc-linux-gnu"

%struct.SDL_Rect = type { i32, i32, i32, i32 }
%struct.SDL_Window = type { i32, ptr, ptr, i32, i32, i32, i32, i32, i32, i32, i32, float, float, i32, i32, i64, i64, float, i8, i8, i32, i32, %struct.SDL_Rect, %struct.SDL_Rect, %struct.SDL_Rect, i8, i8, i8, %struct.SDL_DisplayMode, %struct.SDL_DisplayMode, %struct.SDL_HDROutputProperties, float, ptr, i8, i8, i8, i8, i8, i8, i8, i8, i8, i32, i32, i32, i32, %struct.SDL_Rect, i32, i8, %struct.SDL_Rect, i32, %struct.SDL_Rect, ptr, ptr, i32, float, i32, i32, ptr, ptr, ptr, ptr, ptr, ptr, ptr, ptr, ptr }
%struct.SDL_DisplayMode = type { i32, i32, i32, i32, float, float, i32, i32, ptr }
%struct.SDL_HDROutputProperties = type { float, float }

; Function Attrs: nounwind uwtable
define hidden zeroext i1 @SDL_MousePositionInWindow(ptr noundef %0, float noundef %1, float noundef %2) #0 {
  %4 = alloca i1, align 1
  %5 = alloca ptr, align 8
  %6 = alloca float, align 4
  %7 = alloca float, align 4
  store ptr %0, ptr %5, align 8
  store float %1, ptr %6, align 4
  store float %2, ptr %7, align 4
  %8 = load ptr, ptr %5, align 8
  %9 = icmp ne ptr %8, null
  br i1 %9, label %11, label %10

10:                                               ; preds = %3
  store i1 false, ptr %4, align 1
  br label %43

11:                                               ; preds = %3
  %12 = load ptr, ptr %5, align 8
  %13 = icmp ne ptr %12, null
  br i1 %13, label %14, label %42

14:                                               ; preds = %11
  %15 = load ptr, ptr %5, align 8
  %16 = getelementptr inbounds nuw %struct.SDL_Window, ptr %15, i32 0, i32 15
  %17 = load i64, ptr %16, align 8
  %18 = and i64 %17, 16384
  %19 = icmp ne i64 %18, 0
  br i1 %19, label %42, label %20

20:                                               ; preds = %14
  %21 = load float, ptr %6, align 4
  %22 = fcmp olt float %21, 0.000000e+00
  br i1 %22, label %40, label %23

23:                                               ; preds = %20
  %24 = load float, ptr %7, align 4
  %25 = fcmp olt float %24, 0.000000e+00
  br i1 %25, label %40, label %26

26:                                               ; preds = %23
  %27 = load float, ptr %6, align 4
  %28 = load ptr, ptr %5, align 8
  %29 = getelementptr inbounds nuw %struct.SDL_Window, ptr %28, i32 0, i32 5
  %30 = load i32, ptr %29, align 8
  %31 = sitofp i32 %30 to float
  %32 = fcmp oge float %27, %31
  br i1 %32, label %40, label %33

33:                                               ; preds = %26
  %34 = load float, ptr %7, align 4
  %35 = load ptr, ptr %5, align 8
  %36 = getelementptr inbounds nuw %struct.SDL_Window, ptr %35, i32 0, i32 6
  %37 = load i32, ptr %36, align 4
  %38 = sitofp i32 %37 to float
  %39 = fcmp oge float %34, %38
  br i1 %39, label %40, label %41

40:                                               ; preds = %33, %26, %23, %20
  store i1 false, ptr %4, align 1
  br label %43

41:                                               ; preds = %33
  br label %42

42:                                               ; preds = %41, %14, %11
  store i1 true, ptr %4, align 1
  br label %43

43:                                               ; preds = %42, %40, %10
  %44 = load i1, ptr %4, align 1
  ret i1 %44
}