; Function Attrs: mustprogress nofree norecurse nosync nounwind willreturn memory(argmem: read) uwtable
define hidden noundef zeroext i1 @SDL_MousePositionInWindow(ptr noundef readonly captures(address_is_null) %0, float noundef %1, float noundef %2) local_unnamed_addr #8 {
  %.not = icmp eq ptr %0, null
  br i1 %.not, label %22, label %4

4:                                                ; preds = %3
  %5 = getelementptr inbounds nuw i8, ptr %0, i64 72
  %6 = load i64, ptr %5, align 8
  %7 = and i64 %6, 16384
  %.not14 = icmp eq i64 %7, 0
  br i1 %.not14, label %8, label %21

8:                                                ; preds = %4
  %9 = fcmp olt float %1, 0.000000e+00
  %10 = fcmp olt float %2, 0.000000e+00
  %or.cond = or i1 %9, %10
  br i1 %or.cond, label %22, label %11

11:                                               ; preds = %8
  %12 = getelementptr inbounds nuw i8, ptr %0, i64 32
  %13 = load i32, ptr %12, align 8
  %14 = sitofp i32 %13 to float
  %15 = fcmp ult float %1, %14
  br i1 %15, label %16, label %22

16:                                               ; preds = %11
  %17 = getelementptr inbounds nuw i8, ptr %0, i64 36
  %18 = load i32, ptr %17, align 4
  %19 = sitofp i32 %18 to float
  %20 = fcmp ult float %2, %19
  br i1 %20, label %21, label %22

21:                                               ; preds = %16, %4
  br label %22

22:                                               ; preds = %8, %11, %16, %3, %21
  %.0 = phi i1 [ true, %21 ], [ false, %3 ], [ false, %16 ], [ false, %11 ], [ false, %8 ]
  ret i1 %.0
}